; ModuleID = '6/4148.c'
source_filename = "6/4148.c"
target datalayout = "e-m:e-p270:32:32-p271:32:32-p272:64:64-i64:64-f80:128-n8:16:32:64-S128"
target triple = "x86_64-pc-linux-gnu"

@.str = private unnamed_addr constant [4 x i8] c"%d\0A\00", align 1
@.str.1 = private unnamed_addr constant [6 x i8] c"%d %d\00", align 1
@.str.2 = private unnamed_addr constant [3 x i8] c"%d\00", align 1

; Function Attrs: noinline nounwind uwtable
define dso_local i32 @main() #0 {
  %1 = alloca i32, align 4
  %2 = alloca i32, align 4
  %3 = alloca i32, align 4
  %4 = alloca i32, align 4
  %5 = alloca i32, align 4
  %6 = alloca i32, align 4
  %7 = alloca i32, align 4
  %8 = alloca i32, align 4
  %9 = alloca [100 x [100 x i32]], align 16
  %10 = alloca [1000 x i32], align 16
  store i32 0, i32* %1, align 4
  store i32 0, i32* %8, align 4
  %11 = call i32 (i8*, ...) @__isoc99_scanf(i8* getelementptr inbounds ([4 x i8], [4 x i8]* @.str, i64 0, i64 0), i32* %2)
  store i32 0, i32* %5, align 4
  br label %12

12:                                               ; preds = %153, %0
  %13 = load i32, i32* %5, align 4
  %14 = load i32, i32* %2, align 4
  %15 = icmp slt i32 %13, %14
  br i1 %15, label %16, label %156

16:                                               ; preds = %12
  %17 = call i32 (i8*, ...) @__isoc99_scanf(i8* getelementptr inbounds ([6 x i8], [6 x i8]* @.str.1, i64 0, i64 0), i32* %3, i32* %4)
  store i32 0, i32* %6, align 4
  br label %18

18:                                               ; preds = %39, %16
  %19 = load i32, i32* %6, align 4
  %20 = load i32, i32* %3, align 4
  %21 = icmp slt i32 %19, %20
  br i1 %21, label %22, label %42

22:                                               ; preds = %18
  store i32 0, i32* %7, align 4
  br label %23

23:                                               ; preds = %35, %22
  %24 = load i32, i32* %7, align 4
  %25 = load i32, i32* %4, align 4
  %26 = icmp slt i32 %24, %25
  br i1 %26, label %27, label %38

27:                                               ; preds = %23
  %28 = load i32, i32* %6, align 4
  %29 = sext i32 %28 to i64
  %30 = getelementptr inbounds [100 x [100 x i32]], [100 x [100 x i32]]* %9, i64 0, i64 %29
  %31 = load i32, i32* %7, align 4
  %32 = sext i32 %31 to i64
  %33 = getelementptr inbounds [100 x i32], [100 x i32]* %30, i64 0, i64 %32
  %34 = call i32 (i8*, ...) @__isoc99_scanf(i8* getelementptr inbounds ([3 x i8], [3 x i8]* @.str.2, i64 0, i64 0), i32* %33)
  br label %35

35:                                               ; preds = %27
  %36 = load i32, i32* %7, align 4
  %37 = add nsw i32 %36, 1
  store i32 %37, i32* %7, align 4
  br label %23

38:                                               ; preds = %23
  br label %39

39:                                               ; preds = %38
  %40 = load i32, i32* %6, align 4
  %41 = add nsw i32 %40, 1
  store i32 %41, i32* %6, align 4
  br label %18

42:                                               ; preds = %18
  %43 = load i32, i32* %3, align 4
  %44 = icmp ne i32 %43, 1
  br i1 %44, label %45, label %106

45:                                               ; preds = %42
  %46 = load i32, i32* %4, align 4
  %47 = icmp ne i32 %46, 1
  br i1 %47, label %48, label %106

48:                                               ; preds = %45
  store i32 0, i32* %7, align 4
  br label %49

49:                                               ; preds = %71, %48
  %50 = load i32, i32* %7, align 4
  %51 = load i32, i32* %4, align 4
  %52 = icmp slt i32 %50, %51
  br i1 %52, label %53, label %74

53:                                               ; preds = %49
  %54 = load i32, i32* %8, align 4
  %55 = getelementptr inbounds [100 x [100 x i32]], [100 x [100 x i32]]* %9, i64 0, i64 0
  %56 = load i32, i32* %7, align 4
  %57 = sext i32 %56 to i64
  %58 = getelementptr inbounds [100 x i32], [100 x i32]* %55, i64 0, i64 %57
  %59 = load i32, i32* %58, align 4
  %60 = add nsw i32 %54, %59
  store i32 %60, i32* %8, align 4
  %61 = load i32, i32* %8, align 4
  %62 = load i32, i32* %3, align 4
  %63 = sub nsw i32 %62, 1
  %64 = sext i32 %63 to i64
  %65 = getelementptr inbounds [100 x [100 x i32]], [100 x [100 x i32]]* %9, i64 0, i64 %64
  %66 = load i32, i32* %7, align 4
  %67 = sext i32 %66 to i64
  %68 = getelementptr inbounds [100 x i32], [100 x i32]* %65, i64 0, i64 %67
  %69 = load i32, i32* %68, align 4
  %70 = add nsw i32 %61, %69
  store i32 %70, i32* %8, align 4
  br label %71

71:                                               ; preds = %53
  %72 = load i32, i32* %7, align 4
  %73 = add nsw i32 %72, 1
  store i32 %73, i32* %7, align 4
  br label %49

74:                                               ; preds = %49
  store i32 1, i32* %6, align 4
  br label %75

75:                                               ; preds = %98, %74
  %76 = load i32, i32* %6, align 4
  %77 = load i32, i32* %3, align 4
  %78 = sub nsw i32 %77, 1
  %79 = icmp slt i32 %76, %78
  br i1 %79, label %80, label %101

80:                                               ; preds = %75
  %81 = load i32, i32* %8, align 4
  %82 = load i32, i32* %6, align 4
  %83 = sext i32 %82 to i64
  %84 = getelementptr inbounds [100 x [100 x i32]], [100 x [100 x i32]]* %9, i64 0, i64 %83
  %85 = getelementptr inbounds [100 x i32], [100 x i32]* %84, i64 0, i64 0
  %86 = load i32, i32* %85, align 16
  %87 = add nsw i32 %81, %86
  store i32 %87, i32* %8, align 4
  %88 = load i32, i32* %8, align 4
  %89 = load i32, i32* %6, align 4
  %90 = sext i32 %89 to i64
  %91 = getelementptr inbounds [100 x [100 x i32]], [100 x [100 x i32]]* %9, i64 0, i64 %90
  %92 = load i32, i32* %4, align 4
  %93 = sub nsw i32 %92, 1
  %94 = sext i32 %93 to i64
  %95 = getelementptr inbounds [100 x i32], [100 x i32]* %91, i64 0, i64 %94
  %96 = load i32, i32* %95, align 4
  %97 = add nsw i32 %88, %96
  store i32 %97, i32* %8, align 4
  br label %98

98:                                               ; preds = %80
  %99 = load i32, i32* %6, align 4
  %100 = add nsw i32 %99, 1
  store i32 %100, i32* %6, align 4
  br label %75

101:                                              ; preds = %75
  %102 = load i32, i32* %8, align 4
  %103 = load i32, i32* %5, align 4
  %104 = sext i32 %103 to i64
  %105 = getelementptr inbounds [1000 x i32], [1000 x i32]* %10, i64 0, i64 %104
  store i32 %102, i32* %105, align 4
  store i32 0, i32* %8, align 4
  br label %152

106:                                              ; preds = %45, %42
  store i32 1, i32* %3, align 4
  br i1 true, label %107, label %128

107:                                              ; preds = %106
  store i32 0, i32* %7, align 4
  br label %108

108:                                              ; preds = %124, %107
  %109 = load i32, i32* %7, align 4
  %110 = load i32, i32* %4, align 4
  %111 = icmp slt i32 %109, %110
  br i1 %111, label %112, label %127

112:                                              ; preds = %108
  %113 = load i32, i32* %8, align 4
  %114 = getelementptr inbounds [100 x [100 x i32]], [100 x [100 x i32]]* %9, i64 0, i64 0
  %115 = load i32, i32* %7, align 4
  %116 = sext i32 %115 to i64
  %117 = getelementptr inbounds [100 x i32], [100 x i32]* %114, i64 0, i64 %116
  %118 = load i32, i32* %117, align 4
  %119 = add nsw i32 %113, %118
  store i32 %119, i32* %8, align 4
  %120 = load i32, i32* %8, align 4
  %121 = load i32, i32* %5, align 4
  %122 = sext i32 %121 to i64
  %123 = getelementptr inbounds [1000 x i32], [1000 x i32]* %10, i64 0, i64 %122
  store i32 %120, i32* %123, align 4
  store i32 0, i32* %8, align 4
  br label %124

124:                                              ; preds = %112
  %125 = load i32, i32* %7, align 4
  %126 = add nsw i32 %125, 1
  store i32 %126, i32* %7, align 4
  br label %108

127:                                              ; preds = %108
  br label %151

128:                                              ; preds = %106
  store i32 1, i32* %4, align 4
  br i1 true, label %129, label %150

129:                                              ; preds = %128
  store i32 0, i32* %6, align 4
  br label %130

130:                                              ; preds = %146, %129
  %131 = load i32, i32* %6, align 4
  %132 = load i32, i32* %3, align 4
  %133 = icmp slt i32 %131, %132
  br i1 %133, label %134, label %149

134:                                              ; preds = %130
  %135 = load i32, i32* %8, align 4
  %136 = load i32, i32* %6, align 4
  %137 = sext i32 %136 to i64
  %138 = getelementptr inbounds [100 x [100 x i32]], [100 x [100 x i32]]* %9, i64 0, i64 %137
  %139 = getelementptr inbounds [100 x i32], [100 x i32]* %138, i64 0, i64 0
  %140 = load i32, i32* %139, align 16
  %141 = add nsw i32 %135, %140
  store i32 %141, i32* %8, align 4
  %142 = load i32, i32* %8, align 4
  %143 = load i32, i32* %5, align 4
  %144 = sext i32 %143 to i64
  %145 = getelementptr inbounds [1000 x i32], [1000 x i32]* %10, i64 0, i64 %144
  store i32 %142, i32* %145, align 4
  store i32 0, i32* %8, align 4
  br label %146

146:                                              ; preds = %134
  %147 = load i32, i32* %6, align 4
  %148 = add nsw i32 %147, 1
  store i32 %148, i32* %6, align 4
  br label %130

149:                                              ; preds = %130
  br label %150

150:                                              ; preds = %149, %128
  br label %151

151:                                              ; preds = %150, %127
  br label %152

152:                                              ; preds = %151, %101
  br label %153

153:                                              ; preds = %152
  %154 = load i32, i32* %5, align 4
  %155 = add nsw i32 %154, 1
  store i32 %155, i32* %5, align 4
  br label %12

156:                                              ; preds = %12
  store i32 0, i32* %5, align 4
  br label %157

157:                                              ; preds = %167, %156
  %158 = load i32, i32* %5, align 4
  %159 = load i32, i32* %2, align 4
  %160 = icmp slt i32 %158, %159
  br i1 %160, label %161, label %170

161:                                              ; preds = %157
  %162 = load i32, i32* %5, align 4
  %163 = sext i32 %162 to i64
  %164 = getelementptr inbounds [1000 x i32], [1000 x i32]* %10, i64 0, i64 %163
  %165 = load i32, i32* %164, align 4
  %166 = call i32 (i8*, ...) @printf(i8* getelementptr inbounds ([4 x i8], [4 x i8]* @.str, i64 0, i64 0), i32 %165)
  br label %167

167:                                              ; preds = %161
  %168 = load i32, i32* %5, align 4
  %169 = add nsw i32 %168, 1
  store i32 %169, i32* %5, align 4
  br label %157

170:                                              ; preds = %157
  ret i32 0
}

declare dso_local i32 @__isoc99_scanf(i8*, ...) #1

declare dso_local i32 @printf(i8*, ...) #1


!llvm.module.flags = !{!0}
!llvm.ident = !{!1}

!0 = !{i32 1, !"wchar_size", i32 4}
!1 = !{!"clang version 10.0.0-4ubuntu1 "}
